; Function Attrs: mustprogress nofree norecurse nosync nounwind willreturn memory(argmem: readwrite) uwtable
define hidden void @_ZN6google8protobuf2io16CodedInputStream18SetTotalBytesLimitEi(ptr noundef nonnull align 8 captures(none) dereferenceable(80) initializes((48, 52)) %0, i32 noundef %1) local_unnamed_addr #8 align 2 {
  %3 = getelementptr inbounds nuw i8, ptr %0, i64 24
  %4 = load i32, ptr %3, align 8, !tbaa !20
  %5 = getelementptr inbounds nuw i8, ptr %0, i64 8
  %6 = load ptr, ptr %5, align 8, !tbaa !14
  %7 = load ptr, ptr %0, align 8, !tbaa !15
  %8 = ptrtoint ptr %6 to i64
  %9 = ptrtoint ptr %7 to i64
  %.neg3.i = sub i64 %9, %8
  %.neg4.i = trunc i64 %.neg3.i to i32
  %10 = getelementptr inbounds nuw i8, ptr %0, i64 44
  %11 = load i32, ptr %10, align 4, !tbaa !16
  %.neg2.i = sub i32 %4, %11
  %12 = add i32 %.neg2.i, %.neg4.i
  %.sroa.speculated = tail call i32 @llvm.smax.i32(i32 %12, i32 %1)
  %13 = getelementptr inbounds nuw i8, ptr %0, i64 48
  store i32 %.sroa.speculated, ptr %13, align 8, !tbaa !32
  %14 = sext i32 %11 to i64
  %15 = getelementptr inbounds i8, ptr %6, i64 %14
  store ptr %15, ptr %5, align 8, !tbaa !14
  %16 = getelementptr inbounds nuw i8, ptr %0, i64 40
  %17 = load i32, ptr %16, align 8, !tbaa !23
  %18 = tail call i32 @llvm.smin.i32(i32 %.sroa.speculated, i32 %17)
  %19 = icmp slt i32 %18, %4
  br i1 %19, label %20, label %_ZN6google8protobuf2io16CodedInputStream21RecomputeBufferLimitsEv.exit

20:                                               ; preds = %2
  %21 = sub nsw i32 %4, %18
  %22 = sext i32 %21 to i64
  %23 = sub nsw i64 0, %22
  %24 = getelementptr inbounds i8, ptr %15, i64 %23
  store ptr %24, ptr %5, align 8, !tbaa !14
  br label %_ZN6google8protobuf2io16CodedInputStream21RecomputeBufferLimitsEv.exit

_ZN6google8protobuf2io16CodedInputStream21RecomputeBufferLimitsEv.exit: ; preds = %2, %20
  %.sink.i = phi i32 [ %21, %20 ], [ 0, %2 ]
  store i32 %.sink.i, ptr %10, align 4, !tbaa !16
  ret void
}